   text	   data	    bss	    dec	    hex	filename
  0x2a2	   0x10	   0x16	    712	    2c8	output/space.elf

output/space.elf:     file format elf32-msp430

Sections:
Idx Name          Size      VMA       LMA       File off  Algn
  0 __reset_vector 00000002  0000fffe  0000fffe  00000366  2**0
                  CONTENTS, ALLOC, LOAD, READONLY, DATA
  1 .rodata       00000000  0000c000  0000c000  00000368  2**0
                  CONTENTS, ALLOC, LOAD, DATA
  2 .rodata2      0000000c  0000c000  0000c000  000000b4  2**2
                  CONTENTS, ALLOC, LOAD, DATA
  3 .text         000002a0  0000c00c  0000c00c  000000c0  2**1
                  CONTENTS, ALLOC, LOAD, READONLY, CODE
  4 .data         00000004  00000200  0000c2ac  00000360  2**1
                  CONTENTS, ALLOC, LOAD, DATA
  5 .bss          00000012  00000204  0000c2b0  00000364  2**1
                  ALLOC
  6 .noinit       00000000  00000216  00000216  00000368  2**0
                  CONTENTS
  7 .heap         00000004  00000216  0000c2b0  00000366  2**0
                  ALLOC
  8 .MSP430.attributes 00000017  00000000  00000000  00000368  2**0
                  CONTENTS, READONLY
  9 .comment      00000041  00000000  00000000  0000037f  2**0
                  CONTENTS, READONLY
 10 .debug_aranges 00000020  00000000  00000000  000003c0  2**0
                  CONTENTS, READONLY, DEBUGGING
 11 .debug_info   0000007e  00000000  00000000  000003e0  2**0
                  CONTENTS, READONLY, DEBUGGING
 12 .debug_abbrev 0000005f  00000000  00000000  0000045e  2**0
                  CONTENTS, READONLY, DEBUGGING
 13 .debug_line   0000007c  00000000  00000000  000004bd  2**0
                  CONTENTS, READONLY, DEBUGGING
 14 .debug_frame  00000024  00000000  00000000  0000053c  2**2
                  CONTENTS, READONLY, DEBUGGING
 15 .debug_str    0000009e  00000000  00000000  00000560  2**0
                  CONTENTS, READONLY, DEBUGGING

Disassembly of section __reset_vector:

0000fffe <__msp430_resetvec_hook>:
    fffe:	0c c0       	interrupt service routine at 0xc00c

Disassembly of section .text:

0000c00c <__crt0_start>:
    c00c:	31 40 00 04 	mov	#1024,	r1	;#0x0400

0000c010 <__crt0_init_bss>:
    c010:	3c 40 04 02 	mov	#516,	r12	;#0x0204

0000c014 <.Loc.74.1>:
    c014:	0d 43       	clr	r13		;

0000c016 <.Loc.75.1>:
    c016:	3e 40 12 00 	mov	#18,	r14	;#0x0012

0000c01a <.Loc.79.1>:
    c01a:	b0 12 60 c2 	call	#49760		;#0xc260

0000c01e <__crt0_movedata>:
    c01e:	3c 40 00 02 	mov	#512,	r12	;#0x0200

0000c022 <.Loc.116.1>:
    c022:	3d 40 ac c2 	mov	#49836,	r13	;#0xc2ac

0000c026 <.Loc.119.1>:
    c026:	0d 9c       	cmp	r12,	r13	;

0000c028 <.Loc.120.1>:
    c028:	04 24       	jz	$+10     	;abs 0xc032

0000c02a <.Loc.122.1>:
    c02a:	3e 40 04 00 	mov	#4,	r14	;

0000c02e <.Loc.124.1>:
    c02e:	b0 12 20 c2 	call	#49696		;#0xc220

0000c032 <__crt0_call_init_then_main>:
    c032:	b0 12 90 c2 	call	#49808		;#0xc290

0000c036 <.Loc.196.1>:
    c036:	0c 43       	clr	r12		;

0000c038 <.Loc.197.1>:
    c038:	b0 12 42 c1 	call	#49474		;#0xc142

0000c03c <_msp430_run_init_array>:
    c03c:	34 40 00 c0 	mov	#49152,	r4	;#0xc000

0000c040 <.Loc.224.1>:
    c040:	35 40 00 c0 	mov	#49152,	r5	;#0xc000

0000c044 <.Loc.225.1>:
    c044:	26 43       	mov	#2,	r6	;r3 As==10

0000c046 <.Loc.226.1>:
    c046:	30 40 68 c0 	br	#0xc068		;

0000c04a <_msp430_run_preinit_array>:
    c04a:	34 40 00 c0 	mov	#49152,	r4	;#0xc000

0000c04e <.Loc.232.1>:
    c04e:	35 40 00 c0 	mov	#49152,	r5	;#0xc000

0000c052 <.Loc.233.1>:
    c052:	26 43       	mov	#2,	r6	;r3 As==10

0000c054 <.Loc.234.1>:
    c054:	30 40 68 c0 	br	#0xc068		;

0000c058 <_msp430_run_fini_array>:
    c058:	34 40 00 c0 	mov	#49152,	r4	;#0xc000

0000c05c <.Loc.240.1>:
    c05c:	35 40 00 c0 	mov	#49152,	r5	;#0xc000

0000c060 <.Loc.241.1>:
    c060:	36 40 fe ff 	mov	#65534,	r6	;#0xfffe

0000c064 <.Loc.242.1>:
    c064:	30 40 68 c0 	br	#0xc068		;

0000c068 <_msp430_run_array>:
    c068:	05 94       	cmp	r4,	r5	;

0000c06a <.Loc.246.1>:
    c06a:	05 24       	jz	$+12     	;abs 0xc076

0000c06c <.Loc.247.1>:
    c06c:	27 44       	mov	@r4,	r7	;

0000c06e <.Loc.248.1>:
    c06e:	04 56       	add	r6,	r4	;

0000c070 <.Loc.249.1>:
    c070:	a7 12       	call	@r7		;

0000c072 <.Loc.250.1>:
    c072:	10 40 f4 ff 	br	0xfff4		;PC rel. 0xc068

0000c076 <_msp430_run_done>:
    c076:	30 41       	ret			

0000c078 <L0>:
    c078:	30 41       	ret			
    c07a:	30 41       	ret			

0000c07c <deregister_tm_clones>:
    c07c:	3c 40 ac c2 	mov	#49836,	r12	;#0xc2ac
    c080:	3c 80 ab c2 	sub	#49835,	r12	;#0xc2ab
    c084:	6d 43       	mov.b	#2,	r13	;r3 As==10
    c086:	0d 9c       	cmp	r12,	r13	;
    c088:	07 2c       	jc	$+16     	;abs 0xc098
    c08a:	3d 40 00 00 	mov	#0,	r13	;
    c08e:	0d 93       	cmp	#0,	r13	;r3 As==00
    c090:	03 24       	jz	$+8      	;abs 0xc098
    c092:	3c 40 ac c2 	mov	#49836,	r12	;#0xc2ac
    c096:	8d 12       	call	r13		;

0000c098 <.L1>:
    c098:	30 41       	ret			

0000c09a <register_tm_clones>:
    c09a:	0a 12       	push	r10		;
    c09c:	3a 40 ac c2 	mov	#49836,	r10	;#0xc2ac
    c0a0:	3a 80 ac c2 	sub	#49836,	r10	;#0xc2ac
    c0a4:	0a 11       	rra	r10		;
    c0a6:	0c 4a       	mov	r10,	r12	;
    c0a8:	b0 12 6c c1 	call	#49516		;#0xc16c
    c0ac:	0c 5a       	add	r10,	r12	;
    c0ae:	0d 4c       	mov	r12,	r13	;
    c0b0:	0d 11       	rra	r13		;
    c0b2:	0d 93       	cmp	#0,	r13	;r3 As==00
    c0b4:	07 24       	jz	$+16     	;abs 0xc0c4
    c0b6:	3e 40 00 00 	mov	#0,	r14	;
    c0ba:	0e 93       	cmp	#0,	r14	;r3 As==00
    c0bc:	03 24       	jz	$+8      	;abs 0xc0c4
    c0be:	3c 40 ac c2 	mov	#49836,	r12	;#0xc2ac
    c0c2:	8e 12       	call	r14		;

0000c0c4 <.L7>:
    c0c4:	3a 41       	pop	r10		;
    c0c6:	30 41       	ret			

0000c0c8 <__do_global_dtors_aux>:
    c0c8:	0a 12       	push	r10		;
    c0ca:	09 12       	push	r9		;
    c0cc:	c2 93 04 02 	cmp.b	#0,	&0x0204	;r3 As==00
    c0d0:	20 20       	jnz	$+66     	;abs 0xc112
    c0d2:	3a 40 0a c0 	mov	#49162,	r10	;#0xc00a
    c0d6:	3a 80 08 c0 	sub	#49160,	r10	;#0xc008
    c0da:	0a 11       	rra	r10		;
    c0dc:	3a 53       	add	#-1,	r10	;r3 As==11
    c0de:	39 40 08 c0 	mov	#49160,	r9	;#0xc008

0000c0e2 <.L17>:
    c0e2:	1c 42 06 02 	mov	&0x0206,r12	;0x0206
    c0e6:	0c 9a       	cmp	r10,	r12	;
    c0e8:	09 2c       	jc	$+20     	;abs 0xc0fc
    c0ea:	1c 53       	inc	r12		;
    c0ec:	82 4c 06 02 	mov	r12,	&0x0206	;
    c0f0:	0c 5c       	rla	r12		;
    c0f2:	0c 59       	add	r9,	r12	;
    c0f4:	2c 4c       	mov	@r12,	r12	;
    c0f6:	8c 12       	call	r12		;
    c0f8:	30 40 e2 c0 	br	#0xc0e2		;

0000c0fc <.L23>:
    c0fc:	b0 12 7c c0 	call	#49276		;#0xc07c
    c100:	3d 40 00 00 	mov	#0,	r13	;
    c104:	0d 93       	cmp	#0,	r13	;r3 As==00
    c106:	03 24       	jz	$+8      	;abs 0xc10e
    c108:	3c 40 00 c0 	mov	#49152,	r12	;#0xc000
    c10c:	8d 12       	call	r13		;

0000c10e <.L19>:
    c10e:	d2 43 04 02 	mov.b	#1,	&0x0204	;r3 As==01

0000c112 <.L15>:
    c112:	30 40 66 c1 	br	#0xc166		;

0000c116 <call___do_global_dtors_aux>:
    c116:	3e 40 00 00 	mov	#0,	r14	;
    c11a:	0e 93       	cmp	#0,	r14	;r3 As==00
    c11c:	05 24       	jz	$+12     	;abs 0xc128
    c11e:	3d 40 08 02 	mov	#520,	r13	;#0x0208
    c122:	3c 40 00 c0 	mov	#49152,	r12	;#0xc000
    c126:	8e 12       	call	r14		;

0000c128 <.L26>:
    c128:	3c 40 00 02 	mov	#512,	r12	;#0x0200
    c12c:	8c 93 00 00 	cmp	#0,	0(r12)	;r3 As==00
    c130:	05 24       	jz	$+12     	;abs 0xc13c
    c132:	3d 40 00 00 	mov	#0,	r13	;
    c136:	0d 93       	cmp	#0,	r13	;r3 As==00
    c138:	01 24       	jz	$+4      	;abs 0xc13c
    c13a:	8d 12       	call	r13		;

0000c13c <.L27>:
    c13c:	b0 12 9a c0 	call	#49306		;#0xc09a
    c140:	30 41       	ret			

0000c142 <main>:
#define RED         BIT0
#define GREEN       BIT6 

int main(void) 
{
    WDTCTL = WDTPW | WDTHOLD;
    c142:	b2 40 80 5a 	mov	#23168,	&0x0120	;#0x5a80
    c146:	20 01 

0000c148 <.Loc.36.1>:

    P1DIR |= RED | GREEN;               
    c148:	f2 d0 41 00 	bis.b	#65,	&0x0022	;#0x0041
    c14c:	22 00 

0000c14e <.Loc.37.1>:
    P1OUT |= RED | GREEN;
    c14e:	f2 d0 41 00 	bis.b	#65,	&0x0021	;#0x0041
    c152:	21 00 

0000c154 <.L2>:

    while (1)
    {
        __bis_SR_register(LPM4_bits);
    c154:	32 d0 f0 00 	bis	#240,	r2	;#0x00f0
    c158:	30 40 54 c1 	br	#0xc154		;

0000c15c <__mspabi_func_epilog_7>:
    c15c:	34 41       	pop	r4		;

0000c15e <__mspabi_func_epilog_6>:
    c15e:	35 41       	pop	r5		;

0000c160 <__mspabi_func_epilog_5>:
    c160:	36 41       	pop	r6		;

0000c162 <__mspabi_func_epilog_4>:
    c162:	37 41       	pop	r7		;

0000c164 <__mspabi_func_epilog_3>:
    c164:	38 41       	pop	r8		;

0000c166 <__mspabi_func_epilog_2>:
    c166:	39 41       	pop	r9		;

0000c168 <__mspabi_func_epilog_1>:
    c168:	3a 41       	pop	r10		;
    c16a:	30 41       	ret			

0000c16c <__mspabi_srli_15>:
    c16c:	12 c3       	clrc			
    c16e:	0c 10       	rrc	r12		;

0000c170 <__mspabi_srli_14>:
    c170:	12 c3       	clrc			
    c172:	0c 10       	rrc	r12		;

0000c174 <__mspabi_srli_13>:
    c174:	12 c3       	clrc			
    c176:	0c 10       	rrc	r12		;

0000c178 <__mspabi_srli_12>:
    c178:	12 c3       	clrc			
    c17a:	0c 10       	rrc	r12		;

0000c17c <__mspabi_srli_11>:
    c17c:	12 c3       	clrc			
    c17e:	0c 10       	rrc	r12		;

0000c180 <__mspabi_srli_10>:
    c180:	12 c3       	clrc			
    c182:	0c 10       	rrc	r12		;

0000c184 <__mspabi_srli_9>:
    c184:	12 c3       	clrc			
    c186:	0c 10       	rrc	r12		;

0000c188 <__mspabi_srli_8>:
    c188:	12 c3       	clrc			
    c18a:	0c 10       	rrc	r12		;

0000c18c <__mspabi_srli_7>:
    c18c:	12 c3       	clrc			
    c18e:	0c 10       	rrc	r12		;

0000c190 <__mspabi_srli_6>:
    c190:	12 c3       	clrc			
    c192:	0c 10       	rrc	r12		;

0000c194 <__mspabi_srli_5>:
    c194:	12 c3       	clrc			
    c196:	0c 10       	rrc	r12		;

0000c198 <__mspabi_srli_4>:
    c198:	12 c3       	clrc			
    c19a:	0c 10       	rrc	r12		;

0000c19c <__mspabi_srli_3>:
    c19c:	12 c3       	clrc			
    c19e:	0c 10       	rrc	r12		;

0000c1a0 <__mspabi_srli_2>:
    c1a0:	12 c3       	clrc			
    c1a2:	0c 10       	rrc	r12		;

0000c1a4 <__mspabi_srli_1>:
    c1a4:	12 c3       	clrc			
    c1a6:	0c 10       	rrc	r12		;
    c1a8:	30 41       	ret			

0000c1aa <.L11>:
    c1aa:	3d 53       	add	#-1,	r13	;r3 As==11
    c1ac:	12 c3       	clrc			
    c1ae:	0c 10       	rrc	r12		;

0000c1b0 <__mspabi_srli>:
    c1b0:	0d 93       	cmp	#0,	r13	;r3 As==00
    c1b2:	fb 23       	jnz	$-8      	;abs 0xc1aa
    c1b4:	30 41       	ret			

0000c1b6 <__mspabi_srll_15>:
    c1b6:	12 c3       	clrc			
    c1b8:	0d 10       	rrc	r13		;
    c1ba:	0c 10       	rrc	r12		;

0000c1bc <__mspabi_srll_14>:
    c1bc:	12 c3       	clrc			
    c1be:	0d 10       	rrc	r13		;
    c1c0:	0c 10       	rrc	r12		;

0000c1c2 <__mspabi_srll_13>:
    c1c2:	12 c3       	clrc			
    c1c4:	0d 10       	rrc	r13		;
    c1c6:	0c 10       	rrc	r12		;

0000c1c8 <__mspabi_srll_12>:
    c1c8:	12 c3       	clrc			
    c1ca:	0d 10       	rrc	r13		;
    c1cc:	0c 10       	rrc	r12		;

0000c1ce <__mspabi_srll_11>:
    c1ce:	12 c3       	clrc			
    c1d0:	0d 10       	rrc	r13		;
    c1d2:	0c 10       	rrc	r12		;

0000c1d4 <__mspabi_srll_10>:
    c1d4:	12 c3       	clrc			
    c1d6:	0d 10       	rrc	r13		;
    c1d8:	0c 10       	rrc	r12		;

0000c1da <__mspabi_srll_9>:
    c1da:	12 c3       	clrc			
    c1dc:	0d 10       	rrc	r13		;
    c1de:	0c 10       	rrc	r12		;

0000c1e0 <__mspabi_srll_8>:
    c1e0:	12 c3       	clrc			
    c1e2:	0d 10       	rrc	r13		;
    c1e4:	0c 10       	rrc	r12		;

0000c1e6 <__mspabi_srll_7>:
    c1e6:	12 c3       	clrc			
    c1e8:	0d 10       	rrc	r13		;
    c1ea:	0c 10       	rrc	r12		;

0000c1ec <__mspabi_srll_6>:
    c1ec:	12 c3       	clrc			
    c1ee:	0d 10       	rrc	r13		;
    c1f0:	0c 10       	rrc	r12		;

0000c1f2 <__mspabi_srll_5>:
    c1f2:	12 c3       	clrc			
    c1f4:	0d 10       	rrc	r13		;
    c1f6:	0c 10       	rrc	r12		;

0000c1f8 <__mspabi_srll_4>:
    c1f8:	12 c3       	clrc			
    c1fa:	0d 10       	rrc	r13		;
    c1fc:	0c 10       	rrc	r12		;

0000c1fe <__mspabi_srll_3>:
    c1fe:	12 c3       	clrc			
    c200:	0d 10       	rrc	r13		;
    c202:	0c 10       	rrc	r12		;

0000c204 <__mspabi_srll_2>:
    c204:	12 c3       	clrc			
    c206:	0d 10       	rrc	r13		;
    c208:	0c 10       	rrc	r12		;

0000c20a <__mspabi_srll_1>:
    c20a:	12 c3       	clrc			
    c20c:	0d 10       	rrc	r13		;
    c20e:	0c 10       	rrc	r12		;
    c210:	30 41       	ret			

0000c212 <.L12>:
    c212:	3e 53       	add	#-1,	r14	;r3 As==11
    c214:	12 c3       	clrc			
    c216:	0d 10       	rrc	r13		;
    c218:	0c 10       	rrc	r12		;

0000c21a <__mspabi_srll>:
    c21a:	0e 93       	cmp	#0,	r14	;r3 As==00
    c21c:	fa 23       	jnz	$-10     	;abs 0xc212
    c21e:	30 41       	ret			

0000c220 <memmove>:
    c220:	0b 4c       	mov	r12,	r11	;
    c222:	0b 5e       	add	r14,	r11	;

0000c224 <.Loc.69.1>:
    c224:	0d 9c       	cmp	r12,	r13	;
    c226:	03 28       	jnc	$+8      	;abs 0xc22e

0000c228 <.L4>:
    c228:	0e 4c       	mov	r12,	r14	;

0000c22a <.LVL2>:
    c22a:	30 40 4e c2 	br	#0xc24e		;

0000c22e <.L2>:
    c22e:	0f 4d       	mov	r13,	r15	;
    c230:	0f 5e       	add	r14,	r15	;
    c232:	0c 9f       	cmp	r15,	r12	;
    c234:	f9 2f       	jc	$-12     	;abs 0xc228

0000c236 <.LVL4>:
    c236:	0d 4f       	mov	r15,	r13	;

0000c238 <.LVL5>:
    c238:	0e 8f       	sub	r15,	r14	;

0000c23a <.L5>:
    c23a:	0f 4d       	mov	r13,	r15	;
    c23c:	0f 5e       	add	r14,	r15	;
    c23e:	0f 93       	cmp	#0,	r15	;r3 As==00
    c240:	0e 24       	jz	$+30     	;abs 0xc25e

0000c242 <.Loc.76.1>:
    c242:	3b 53       	add	#-1,	r11	;r3 As==11
    c244:	3d 53       	add	#-1,	r13	;r3 As==11

0000c246 <.LVL8>:
    c246:	eb 4d 00 00 	mov.b	@r13,	0(r11)	;
    c24a:	30 40 3a c2 	br	#0xc23a		;

0000c24e <.L3>:
    c24e:	0e 9b       	cmp	r11,	r14	;
    c250:	06 24       	jz	$+14     	;abs 0xc25e

0000c252 <.LVL10>:
    c252:	ee 4d 00 00 	mov.b	@r13,	0(r14)	;
    c256:	1e 53       	inc	r14		;

0000c258 <.LVL11>:
    c258:	1d 53       	inc	r13		;
    c25a:	30 40 4e c2 	br	#0xc24e		;

0000c25e <.L9>:
    c25e:	30 41       	ret			

0000c260 <memset>:
    c260:	0f 4c       	mov	r12,	r15	;
    c262:	0e 5c       	add	r12,	r14	;

0000c264 <.L2>:
    c264:	0f 9e       	cmp	r14,	r15	;
    c266:	05 24       	jz	$+12     	;abs 0xc272

0000c268 <.LVL3>:
    c268:	cf 4d 00 00 	mov.b	r13,	0(r15)	;
    c26c:	1f 53       	inc	r15		;

0000c26e <.LVL4>:
    c26e:	30 40 64 c2 	br	#0xc264		;

0000c272 <.L5>:
    c272:	30 41       	ret			

0000c274 <L0>:
    c274:	30 41       	ret			

0000c276 <__do_global_ctors_aux>:
    c276:	0a 12       	push	r10		;
    c278:	3a 40 04 c0 	mov	#49156,	r10	;#0xc004

0000c27c <.L2>:
    c27c:	2c 4a       	mov	@r10,	r12	;
    c27e:	3c 93       	cmp	#-1,	r12	;r3 As==11
    c280:	05 24       	jz	$+12     	;abs 0xc28c
    c282:	8c 12       	call	r12		;
    c284:	3a 50 fe ff 	add	#65534,	r10	;#0xfffe
    c288:	30 40 7c c2 	br	#0xc27c		;

0000c28c <.L5>:
    c28c:	3a 41       	pop	r10		;
    c28e:	30 41       	ret			

0000c290 <call___do_global_ctors_aux>:
    c290:	b0 12 16 c1 	call	#49430		;#0xc116
    c294:	b0 12 76 c2 	call	#49782		;#0xc276

0000c298 <L0>:
    c298:	b0 12 4a c0 	call	#49226		;#0xc04a

0000c29c <.Loc.19.1>:
    c29c:	b0 12 3c c0 	call	#49212		;#0xc03c

0000c2a0 <.Loc.20.1>:
    c2a0:	30 41       	ret			

0000c2a2 <__msp430_fini>:
    c2a2:	b0 12 58 c0 	call	#49240		;#0xc058

0000c2a6 <L0>:
    c2a6:	b0 12 c8 c0 	call	#49352		;#0xc0c8

0000c2aa <L0>:
    c2aa:	30 41       	ret			

Disassembly of section .MSP430.attributes:

00000000 <__stack-0x400>:
   0:	41 16       	popm.a	#5,	r5	;20-bit words
   2:	00 00       	beq			
   4:	00 6d       	addc	r13,	r0	;
   6:	73 70       	.word	0x7073;	????
   8:	61 62       	addc.b	#4,	r1	;r2 As==10
   a:	69 00 01 0b 	mova	r0,	&592641	; 0x90b01
   e:	00 00       	beq			
  10:	00 04       	bra	@r4		;
  12:	01 06       	mova	@r6,	r1	;
  14:	01 08       	mova	@r8,	r1	;
  16:	01 61       	Address 0x00000016 is out of bounds.
.word	0xffff;	????
